Certificate:
    Data:
        Version: 3 (0x2)
        Serial Number: 18008675309 (0x4316693ed)
    Signature Algorithm: sha256WithRSAEncryption
        Issuer: C = US, O = Mother Nature, OU = Everything, CN = Mother Nature
        Validity
            Not Before: Jun 30 20:59:07 2016 GMT
            Not After : Sep 11 20:59:07 2016 GMT
        Subject: C = US, O = Extreme Discord, OU = Chaos, L = Tallahassee, ST = FL, street = 3210 Holly Mill Run, postalCode = 30062, CN = gov.us, GN = Alexander, SN = -
        Subject Public Key Info:
            Public Key Algorithm: rsaEncryption
                Public-Key: (2048 bit)
                Modulus:
                    00:d6:97:5b:1f:73:33:ad:58:6c:a2:80:46:22:cc:
                    a7:a8:bc:38:b2:3a:99:9d:10:9c:48:7b:55:56:ba:
                    57:f2:f5:0c:43:46:3b:40:24:5c:ad:28:f0:18:28:
                    a0:79:a8:21:53:a0:c9:65:73:cf:67:42:d1:a5:ca:
                    c6:3b:6c:18:ce:f5:a6:74:a8:7c:73:df:39:cb:05:
                    6f:59:b6:b4:f6:83:26:db:c2:31:0a:af:e4:b3:09:
                    ee:46:b7:67:89:f8:77:12:cf:e6:d7:c6:7f:f5:dd:
                    67:ab:11:48:c2:6b:77:7b:10:16:5b:73:5f:f7:d3:
                    40:e7:34:c1:cc:ec:f0:99:67:2c:21:0f:19:0f:27:
                    44:f7:9a:ae:8b:a7:8b:f2:c4:f2:ed:25:14:df:e0:
                    6e:69:e9:c0:08:70:09:c4:db:f7:cb:e6:e2:95:0b:
                    4c:01:c6:26:4a:39:51:18:e2:2e:08:df:ca:8f:63:
                    ef:3a:68:5e:5e:eb:57:3a:5a:67:57:e4:1b:ee:f9:
                    c4:40:6a:0f:bd:7e:1c:f3:87:c8:32:68:55:07:16:
                    99:2f:7f:af:fd:3e:db:88:4a:2b:9f:91:ba:15:27:
                    7c:43:64:d0:2c:d8:a6:2c:6c:2c:77:ae:81:a3:f7:
                    65:81:5b:f7:93:99:84:29:7d:29:f6:44:b6:7d:b8:
                    5e:af
                Exponent: 65537 (0x10001)
        X509v3 extensions:
            X509v3 Key Usage: critical
                Digital Signature, Key Encipherment
            X509v3 Extended Key Usage: 
                TLS Web Client Authentication, TLS Web Server Authentication
            X509v3 Basic Constraints: critical
                CA:FALSE
            X509v3 Authority Key Identifier: 
                keyid:01:02:03

            Authority Information Access: 
                OCSP - URI:http://theca.net/ocsp
                CA Issuers - URI:http://theca.net/totallythecert.crt

            X509v3 Certificate Policies: 
                Policy: 2.23.140.1.2.2

            X509v3 Subject Key Identifier: 
                04:03:02:01
            X509v3 Subject Alternative Name: 
                DNS:*.gov.us, DNS:gov.us
    Signature Algorithm: sha256WithRSAEncryption
         28:ab:5c:a8:b2:c1:59:97:c2:84:27:79:20:00:c0:32:18:3f:
         27:60:1c:2d:46:62:91:7a:5d:56:75:2e:07:4e:94:ac:06:a8:
         81:3c:3a:38:50:03:dd:a1:ee:ef:06:61:f2:07:de:95:be:f0:
         a1:42:58:7e:c2:56:1f:53:c0:0e:74:ce:e7:82:d1:be:3b:e9:
         ad:7c:13:81:49:a3:0a:c6:cf:38:db:ad:41:54:83:06:d5:ac:
         e3:ed:b7:35:75:f0:c8:f0:87:8f:77:98:52:d7:57:a1:ce:6d:
         1f:ec:85:0e:00:3c:e4:3a:59:80:ac:21:23:a7:5e:72:bb:ae:
         d5:0f:4f:30:a7:bd:89:cc:9b:5b:bd:d4:f4:21:3b:3f:24:38:
         e4:a1:c2:68:2f:98:0b:d4:5c:e8:93:37:ef:2d:68:38:65:e4:
         ad:7f:be:e0:8c:9f:8a:df:68:94:19:68:b4:ff:b9:39:58:94:
         7c:12:9f:54:e7:bd:1c:55:34:c1:60:2a:15:ac:36:a8:3d:79:
         82:a2:dc:ff:f3:a2:cb:78:01:fa:d1:2b:1e:e9:bf:56:d0:b6:
         1d:41:34:03:24:e0:74:3d:5c:17:41:a0:f7:a1:a7:df:bf:97:
         41:12:e8:b8:30:9e:d8:23:a4:b8:f0:74:dc:0b:e9:ae:51:82:
         87:23:21:25
-----BEGIN CERTIFICATE-----
MIIEgTCCA2mgAwIBAgIFBDFmk+0wDQYJKoZIhvcNAQELBQAwUjELMAkGA1UEBhMC
VVMxFjAUBgNVBAoTDU1vdGhlciBOYXR1cmUxEzARBgNVBAsTCkV2ZXJ5dGhpbmcx
FjAUBgNVBAMTDU1vdGhlciBOYXR1cmUwHhcNMTYwNjMwMjA1OTA3WhcNMTYwOTEx
MjA1OTA3WjCBuTELMAkGA1UEBhMCVVMxGDAWBgNVBAoTD0V4dHJlbWUgRGlzY29y
ZDEOMAwGA1UECxMFQ2hhb3MxFDASBgNVBAcTC1RhbGxhaGFzc2VlMQswCQYDVQQI
EwJGTDEcMBoGA1UECRMTMzIxMCBIb2xseSBNaWxsIFJ1bjEOMAwGA1UEERMFMzAw
NjIxDzANBgNVBAMTBmdvdi51czESMBAGA1UEKhMJQWxleGFuZGVyMQowCAYDVQQE
EwEtMIIBIjANBgkqhkiG9w0BAQEFAAOCAQ8AMIIBCgKCAQEA1pdbH3MzrVhsooBG
IsynqLw4sjqZnRCcSHtVVrpX8vUMQ0Y7QCRcrSjwGCigeaghU6DJZXPPZ0LRpcrG
O2wYzvWmdKh8c985ywVvWba09oMm28IxCq/kswnuRrdnifh3Es/m18Z/9d1nqxFI
wmt3exAWW3Nf99NA5zTBzOzwmWcsIQ8ZDydE95qui6eL8sTy7SUU3+BuaenACHAJ
xNv3y+bilQtMAcYmSjlRGOIuCN/Kj2PvOmheXutXOlpnV+Qb7vnEQGoPvX4c84fI
MmhVBxaZL3+v/T7biEorn5G6FSd8Q2TQLNimLGwsd66Bo/dlgVv3k5mEKX0p9kS2
fbherwIDAQABo4H1MIHyMA4GA1UdDwEB/wQEAwIFoDAdBgNVHSUEFjAUBggrBgEF
BQcDAgYIKwYBBQUHAwEwDAYDVR0TAQH/BAIwADAOBgNVHSMEBzAFgAMBAgMwYgYI
KwYBBQUHAQEEVjBUMCEGCCsGAQUFBzABhhVodHRwOi8vdGhlY2EubmV0L29jc3Aw
LwYIKwYBBQUHMAKGI2h0dHA6Ly90aGVjYS5uZXQvdG90YWxseXRoZWNlcnQuY3J0
MBMGA1UdIAQMMAowCAYGZ4EMAQICMA0GA1UdDgQGBAQEAwIBMBsGA1UdEQQUMBKC
CCouZ292LnVzggZnb3YudXMwDQYJKoZIhvcNAQELBQADggEBACirXKiywVmXwoQn
eSAAwDIYPydgHC1GYpF6XVZ1LgdOlKwGqIE8OjhQA92h7u8GYfIH3pW+8KFCWH7C
Vh9TwA50zueC0b476a18E4FJowrGzzjbrUFUgwbVrOPttzV18Mjwh493mFLXV6HO
bR/shQ4APOQ6WYCsISOnXnK7rtUPTzCnvYnMm1u91PQhOz8kOOShwmgvmAvUXOiT
N+8taDhl5K1/vuCMn4rfaJQZaLT/uTlYlHwSn1TnvRxVNMFgKhWsNqg9eYKi3P/z
ost4AfrRKx7pv1bQth1BNAMk4HQ9XBdBoPehp9+/l0ES6LgwntgjpLjwdNwL6a5R
gocjISU=
-----END CERTIFICATE-----
