Certificate:
    Data:
        Version: 3 (0x2)
        Serial Number: 18008675309 (0x4316693ed)
    Signature Algorithm: sha256WithRSAEncryption
        Issuer: C = US, O = Mother Nature, OU = Everything, CN = Mother Nature
        Validity
            Not Before: Jun 30 21:00:51 2016 GMT
            Not After : Sep 11 21:00:51 2016 GMT
        Subject: C = US, O = Extreme Discord, OU = Chaos, L = Tallahassee, ST = FL, street = 3210 Holly Mill Run, postalCode = 30062, CN = gov.us, GN = Alexander, SN = Dude
        Subject Public Key Info:
            Public Key Algorithm: rsaEncryption
                Public-Key: (2048 bit)
                Modulus:
                    00:db:79:c7:94:6a:7b:b8:93:cc:d9:6c:b3:24:6d:
                    00:65:bb:ba:ea:23:7f:4a:c3:7d:59:23:0f:7e:bc:
                    e1:06:8f:69:b6:90:b3:f5:65:c9:10:be:f8:70:90:
                    c8:52:54:fd:5a:f3:0f:51:7a:6a:de:2c:37:b8:4f:
                    b3:5b:c8:20:cc:75:eb:a1:26:9d:cd:0d:b8:1d:32:
                    78:13:26:0a:fd:c2:bd:a4:3d:58:a8:1a:a7:56:57:
                    6f:67:dd:9e:74:01:a3:2d:f7:1d:15:e7:35:28:c2:
                    c8:e1:25:28:58:89:ec:05:dd:4f:b0:de:80:50:a7:
                    c5:38:62:70:5f:8c:d9:12:6e:18:46:d7:9a:87:1d:
                    7c:3c:17:d2:7b:09:ad:ca:4a:ed:74:0a:53:3e:f6:
                    3b:84:e8:9b:7b:9a:0f:88:d6:85:75:2c:e0:78:f3:
                    70:e3:3b:b0:b7:6c:85:15:82:fc:26:a1:80:07:ec:
                    7b:80:51:1a:6e:b9:af:94:66:66:1c:3a:8b:65:72:
                    ff:bd:20:f2:72:a1:5f:e1:43:6b:fe:29:bf:cf:0b:
                    d5:cf:15:6a:0d:57:7c:f1:53:f0:09:16:11:fa:ec:
                    e0:e8:f8:15:48:83:e2:7d:ab:73:b2:e0:0c:0c:a1:
                    eb:b5:a8:cb:28:03:84:39:d1:08:c2:bd:c9:3d:7f:
                    da:b1
                Exponent: 65537 (0x10001)
        X509v3 extensions:
            X509v3 Key Usage: critical
                Digital Signature, Key Encipherment
            X509v3 Extended Key Usage: 
                TLS Web Client Authentication, TLS Web Server Authentication
            X509v3 Basic Constraints: critical
                CA:FALSE
            X509v3 Authority Key Identifier: 
                keyid:01:02:03

            Authority Information Access: 
                OCSP - URI:http://theca.net/ocsp
                CA Issuers - URI:http://theca.net/totallythecert.crt

            X509v3 Certificate Policies: 
                Policy: 2.23.140.1.2.2

            X509v3 Subject Key Identifier: 
                04:03:02:01
            X509v3 Subject Alternative Name: 
                DNS:*.gov.us, DNS:gov.us
    Signature Algorithm: sha256WithRSAEncryption
         18:04:e1:25:0a:59:65:ea:8c:b9:8a:0c:d1:9a:0d:86:55:4b:
         54:54:86:48:e5:be:46:f4:fb:7b:f0:a8:22:af:99:4e:ef:76:
         5d:d9:46:4a:ae:e3:df:08:37:4e:0d:00:10:9a:9b:74:2e:31:
         53:97:82:42:78:24:ef:da:89:9d:5d:07:35:8f:cf:57:74:bc:
         5d:2e:46:03:c7:9d:21:e3:86:45:98:a1:fb:1b:1b:98:0d:1f:
         a2:fc:8d:1b:ac:8d:d2:ea:ab:01:23:07:3a:96:1f:61:f8:f5:
         98:83:75:28:a8:d4:76:09:03:22:0b:b1:04:4a:82:5e:1d:f2:
         98:a7:de:f9:6a:27:fe:0e:7c:21:f0:73:be:9d:fe:11:25:57:
         31:5f:71:a7:9b:73:a6:a5:a5:55:b0:cd:e8:f7:ca:1e:b8:42:
         be:7b:12:3e:20:52:12:ec:17:b0:0b:a5:33:ac:9d:a1:50:20:
         de:ec:8a:58:8f:1c:69:99:61:92:95:96:3a:6f:e5:7d:66:c0:
         2f:97:26:a0:82:1e:40:70:99:3a:f0:48:bb:45:2f:80:c8:5b:
         e0:cf:85:fe:15:de:e3:8c:48:6f:c6:7c:c4:55:f5:9a:11:9c:
         35:25:53:1d:6a:49:46:ab:b0:0f:cf:64:c5:39:58:66:c3:f2:
         05:3c:19:d1
-----BEGIN CERTIFICATE-----
MIIEhDCCA2ygAwIBAgIFBDFmk+0wDQYJKoZIhvcNAQELBQAwUjELMAkGA1UEBhMC
VVMxFjAUBgNVBAoTDU1vdGhlciBOYXR1cmUxEzARBgNVBAsTCkV2ZXJ5dGhpbmcx
FjAUBgNVBAMTDU1vdGhlciBOYXR1cmUwHhcNMTYwNjMwMjEwMDUxWhcNMTYwOTEx
MjEwMDUxWjCBvDELMAkGA1UEBhMCVVMxGDAWBgNVBAoTD0V4dHJlbWUgRGlzY29y
ZDEOMAwGA1UECxMFQ2hhb3MxFDASBgNVBAcTC1RhbGxhaGFzc2VlMQswCQYDVQQI
EwJGTDEcMBoGA1UECRMTMzIxMCBIb2xseSBNaWxsIFJ1bjEOMAwGA1UEERMFMzAw
NjIxDzANBgNVBAMTBmdvdi51czESMBAGA1UEKhMJQWxleGFuZGVyMQ0wCwYDVQQE
EwREdWRlMIIBIjANBgkqhkiG9w0BAQEFAAOCAQ8AMIIBCgKCAQEA23nHlGp7uJPM
2WyzJG0AZbu66iN/SsN9WSMPfrzhBo9ptpCz9WXJEL74cJDIUlT9WvMPUXpq3iw3
uE+zW8ggzHXroSadzQ24HTJ4EyYK/cK9pD1YqBqnVldvZ92edAGjLfcdFec1KMLI
4SUoWInsBd1PsN6AUKfFOGJwX4zZEm4YRteahx18PBfSewmtykrtdApTPvY7hOib
e5oPiNaFdSzgePNw4zuwt2yFFYL8JqGAB+x7gFEabrmvlGZmHDqLZXL/vSDycqFf
4UNr/im/zwvVzxVqDVd88VPwCRYR+uzg6PgVSIPifatzsuAMDKHrtajLKAOEOdEI
wr3JPX/asQIDAQABo4H1MIHyMA4GA1UdDwEB/wQEAwIFoDAdBgNVHSUEFjAUBggr
BgEFBQcDAgYIKwYBBQUHAwEwDAYDVR0TAQH/BAIwADAOBgNVHSMEBzAFgAMBAgMw
YgYIKwYBBQUHAQEEVjBUMCEGCCsGAQUFBzABhhVodHRwOi8vdGhlY2EubmV0L29j
c3AwLwYIKwYBBQUHMAKGI2h0dHA6Ly90aGVjYS5uZXQvdG90YWxseXRoZWNlcnQu
Y3J0MBMGA1UdIAQMMAowCAYGZ4EMAQICMA0GA1UdDgQGBAQEAwIBMBsGA1UdEQQU
MBKCCCouZ292LnVzggZnb3YudXMwDQYJKoZIhvcNAQELBQADggEBABgE4SUKWWXq
jLmKDNGaDYZVS1RUhkjlvkb0+3vwqCKvmU7vdl3ZRkqu498IN04NABCam3QuMVOX
gkJ4JO/aiZ1dBzWPz1d0vF0uRgPHnSHjhkWYofsbG5gNH6L8jRusjdLqqwEjBzqW
H2H49ZiDdSio1HYJAyILsQRKgl4d8pin3vlqJ/4OfCHwc76d/hElVzFfcaebc6al
pVWwzej3yh64Qr57Ej4gUhLsF7ALpTOsnaFQIN7siliPHGmZYZKVljpv5X1mwC+X
JqCCHkBwmTrwSLtFL4DIW+DPhf4V3uOMSG/GfMRV9ZoRnDUlUx1qSUarsA/PZMU5
WGbD8gU8GdE=
-----END CERTIFICATE-----
